target datalayout = "e-m:e-p270:32:32-p271:32:32-p272:64:64-i64:64-i128:128-f80:128-n8:16:32:64-S128"
target triple = "x86_64-pc-linux-gnu"

%struct.ident_t = type { i32, i32, i32, i32, ptr }

@1 = private unnamed_addr constant %struct.ident_t { i32 0, i32 514, i32 0, i32 22, ptr @0 }, align 8

; Function Attrs: norecurse nounwind uwtable
define internal void @_ZN5faiss30pairwise_indexed_inner_productEmmPKfPKlS1_S3_Pf.omp_outlined(ptr noalias noundef %0, ptr noalias noundef %1, ptr noundef nonnull align 8 dereferenceable(8) %2, ptr noundef nonnull align 8 dereferenceable(8) %3, ptr noundef nonnull align 8 dereferenceable(8) %4, ptr noundef nonnull align 8 dereferenceable(8) %5, ptr noundef nonnull align 8 dereferenceable(8) %6, ptr noundef nonnull align 8 dereferenceable(8) %7, ptr noundef nonnull align 8 dereferenceable(8) %8) #1 personality ptr @__gxx_personality_v0 {
  %10 = alloca ptr, align 8
  %11 = alloca ptr, align 8
  %12 = alloca ptr, align 8
  %13 = alloca ptr, align 8
  %14 = alloca ptr, align 8
  %15 = alloca ptr, align 8
  %16 = alloca ptr, align 8
  %17 = alloca ptr, align 8
  %18 = alloca ptr, align 8
  %19 = alloca i64, align 8
  %20 = alloca i64, align 8
  %21 = alloca i64, align 8
  %22 = alloca i64, align 8
  %23 = alloca i64, align 8
  %24 = alloca i64, align 8
  %25 = alloca i64, align 8
  %26 = alloca i32, align 4
  %27 = alloca i64, align 8
  store ptr %0, ptr %10, align 8
  store ptr %1, ptr %11, align 8
  store ptr %2, ptr %12, align 8
  store ptr %3, ptr %13, align 8
  store ptr %4, ptr %14, align 8
  store ptr %5, ptr %15, align 8
  store ptr %6, ptr %16, align 8
  store ptr %7, ptr %17, align 8
  store ptr %8, ptr %18, align 8
  %28 = load ptr, ptr %12, align 8
  %29 = load ptr, ptr %13, align 8
  %30 = load ptr, ptr %14, align 8
  %31 = load ptr, ptr %15, align 8
  %32 = load ptr, ptr %16, align 8
  %33 = load ptr, ptr %17, align 8
  %34 = load ptr, ptr %18, align 8
  %35 = load i64, ptr %28, align 8
  store i64 %35, ptr %20, align 8
  %36 = load i64, ptr %20, align 8
  %37 = sub i64 %36, 0
  %38 = udiv i64 %37, 1
  %39 = sub i64 %38, 1
  store i64 %39, ptr %21, align 8
  store i64 0, ptr %22, align 8
  %40 = load i64, ptr %20, align 8
  %41 = icmp ult i64 0, %40
  br i1 %41, label %42, label %112

42:                                               ; preds = %9
  store i64 0, ptr %23, align 8
  %43 = load i64, ptr %21, align 8
  store i64 %43, ptr %24, align 8
  store i64 1, ptr %25, align 8
  store i32 0, ptr %26, align 4
  %44 = load ptr, ptr %10, align 8
  %45 = load i32, ptr %44, align 4
  call void @__kmpc_for_static_init_8u(ptr @1, i32 %45, i32 34, ptr %26, ptr %23, ptr %24, ptr %25, i64 1, i64 1)
  %46 = load i64, ptr %24, align 8
  %47 = load i64, ptr %21, align 8
  %48 = icmp ugt i64 %46, %47
  br i1 %48, label %49, label %51

49:                                               ; preds = %42
  %50 = load i64, ptr %21, align 8
  br label %53

51:                                               ; preds = %42
  %52 = load i64, ptr %24, align 8
  br label %53

53:                                               ; preds = %51, %49
  %54 = phi i64 [ %50, %49 ], [ %52, %51 ]
  store i64 %54, ptr %24, align 8
  %55 = load i64, ptr %23, align 8
  store i64 %55, ptr %19, align 8
  br label %56

56:                                               ; preds = %105, %53
  %57 = load i64, ptr %19, align 8
  %58 = load i64, ptr %24, align 8
  %59 = add i64 %58, 1
  %60 = icmp ult i64 %57, %59
  br i1 %60, label %61, label %108

61:                                               ; preds = %56
  %62 = load i64, ptr %19, align 8
  %63 = mul i64 %62, 1
  %64 = add i64 0, %63
  store i64 %64, ptr %27, align 8
  %65 = load ptr, ptr %29, align 8
  %66 = load i64, ptr %27, align 8
  %67 = getelementptr inbounds i64, ptr %65, i64 %66
  %68 = load i64, ptr %67, align 8
  %69 = icmp sge i64 %68, 0
  br i1 %69, label %70, label %99

70:                                               ; preds = %61
  %71 = load ptr, ptr %30, align 8
  %72 = load i64, ptr %27, align 8
  %73 = getelementptr inbounds i64, ptr %71, i64 %72
  %74 = load i64, ptr %73, align 8
  %75 = icmp sge i64 %74, 0
  br i1 %75, label %76, label %99

76:                                               ; preds = %70
  %77 = load ptr, ptr %32, align 8
  %78 = load i64, ptr %33, align 8
  %79 = load ptr, ptr %29, align 8
  %80 = load i64, ptr %27, align 8
  %81 = getelementptr inbounds i64, ptr %79, i64 %80
  %82 = load i64, ptr %81, align 8
  %83 = mul i64 %78, %82
  %84 = getelementptr inbounds float, ptr %77, i64 %83
  %85 = load ptr, ptr %34, align 8
  %86 = load i64, ptr %33, align 8
  %87 = load ptr, ptr %30, align 8
  %88 = load i64, ptr %27, align 8
  %89 = getelementptr inbounds i64, ptr %87, i64 %88
  %90 = load i64, ptr %89, align 8
  %91 = mul i64 %86, %90
  %92 = getelementptr inbounds float, ptr %85, i64 %91
  %93 = load i64, ptr %33, align 8
  %94 = invoke noundef float @_ZN5faiss18fvec_inner_productEPKfS1_m(ptr noundef %84, ptr noundef %92, i64 noundef %93)
          to label %95 unwind label %113

95:                                               ; preds = %76
  %96 = load ptr, ptr %31, align 8
  %97 = load i64, ptr %27, align 8
  %98 = getelementptr inbounds float, ptr %96, i64 %97
  store float %94, ptr %98, align 4
  br label %103

99:                                               ; preds = %70, %61
  %100 = load ptr, ptr %31, align 8
  %101 = load i64, ptr %27, align 8
  %102 = getelementptr inbounds float, ptr %100, i64 %101
  store float 0xFFF0000000000000, ptr %102, align 4
  br label %103

103:                                              ; preds = %99, %95
  br label %104

104:                                              ; preds = %103
  br label %105

105:                                              ; preds = %104
  %106 = load i64, ptr %19, align 8
  %107 = add i64 %106, 1
  store i64 %107, ptr %19, align 8
  br label %56

108:                                              ; preds = %56
  br label %109

109:                                              ; preds = %108
  %110 = load ptr, ptr %10, align 8
  %111 = load i32, ptr %110, align 4
  call void @__kmpc_for_static_fini(ptr @1, i32 %111)
  br label %112

112:                                              ; preds = %109, %9
  ret void

113:                                              ; preds = %76
  %114 = landingpad { ptr, i32 }
          catch ptr null
  %115 = extractvalue { ptr, i32 } %114, 0
  call void @__clang_call_terminate(ptr %115) #17
  unreachable
}